; Function Attrs: noreturn nounwind uwtable
define internal void @my_error_exit(ptr noundef %0) #5 {
  %2 = load ptr, ptr %0, align 8
  %3 = getelementptr inbounds i8, ptr %2, i64 16
  %4 = load ptr, ptr %3, align 8
  tail call void %4(ptr noundef nonnull %0) #11
  %5 = getelementptr inbounds i8, ptr %2, i64 168
  tail call void @longjmp(ptr noundef nonnull %5, i32 noundef 1) #14
  unreachable
}